; Function Attrs: nounwind uwtable
define hidden void @luaC_changemode(ptr noundef %0, i32 noundef %1) local_unnamed_addr #0 {
  %3 = getelementptr inbounds nuw i8, ptr %0, i64 24
  %4 = load ptr, ptr %3, align 8, !tbaa !4
  %5 = getelementptr inbounds nuw i8, ptr %4, i64 108
  %6 = load i8, ptr %5, align 4, !tbaa !29
  %7 = icmp eq i8 %6, 2
  br i1 %7, label %8, label %9

8:                                                ; preds = %2
  store i8 0, ptr %5, align 4, !tbaa !29
  br label %9

9:                                                ; preds = %8, %2
  %10 = phi i8 [ 0, %8 ], [ %6, %2 ]
  %11 = zext i8 %10 to i32
  %.not = icmp eq i32 %1, %11
  br i1 %.not, label %50, label %12

12:                                               ; preds = %9
  %13 = icmp eq i32 %1, 0
  br i1 %13, label %14, label %49

14:                                               ; preds = %12
  %15 = getelementptr inbounds nuw i8, ptr %4, i64 32
  %16 = load i64, ptr %15, align 8, !tbaa !31
  %17 = getelementptr inbounds nuw i8, ptr %4, i64 40
  store i64 %16, ptr %17, align 8, !tbaa !55
  store i8 0, ptr %5, align 4, !tbaa !29
  %18 = getelementptr inbounds nuw i8, ptr %4, i64 192
  %19 = getelementptr inbounds nuw i8, ptr %4, i64 224
  tail call void @llvm.memset.p0.i64(ptr noundef nonnull align 8 dereferenceable(24) %18, i8 0, i64 24, i1 false)
  tail call void @llvm.memset.p0.i64(ptr noundef nonnull align 8 dereferenceable(24) %19, i8 0, i64 24, i1 false)
  %20 = load ptr, ptr %3, align 8, !tbaa !4
  %21 = getelementptr inbounds nuw i8, ptr %20, i64 107
  store i8 3, ptr %21, align 1, !tbaa !20
  %22 = getelementptr inbounds nuw i8, ptr %20, i64 112
  %.pre.i.i = load ptr, ptr %22, align 8, !tbaa !46
  br label %23

23:                                               ; preds = %sweeplist.exit.i.i.i, %14
  %24 = phi ptr [ %.pre.i.i, %14 ], [ %30, %sweeplist.exit.i.i.i ]
  %.0.i.i.i = phi ptr [ %22, %14 ], [ %.023.i.i.i.i, %sweeplist.exit.i.i.i ]
  %25 = load ptr, ptr %3, align 8, !tbaa !4
  %26 = getelementptr inbounds nuw i8, ptr %25, i64 106
  %27 = load i8, ptr %26, align 2, !tbaa !30
  %28 = xor i8 %27, 24
  %29 = and i8 %27, 24
  %.not21.i.i.i.i = icmp eq ptr %24, null
  br i1 %.not21.i.i.i.i, label %minor2inc.exit, label %.lr.ph.i.i.i.i

.lr.ph.i.i.i.i:                                   ; preds = %23, %41
  %30 = phi ptr [ %42, %41 ], [ %24, %23 ]
  %.023.i.i.i.i = phi ptr [ %.1.i.i.i.i, %41 ], [ %.0.i.i.i, %23 ]
  %.01822.i.i.i.i = phi i64 [ %31, %41 ], [ 1, %23 ]
  %31 = add nsw i64 %.01822.i.i.i.i, -1
  %.not.i.i.i = icmp eq i64 %.01822.i.i.i.i, 0
  br i1 %.not.i.i.i, label %sweeplist.exit.i.i.i, label %32

32:                                               ; preds = %.lr.ph.i.i.i.i
  %33 = getelementptr inbounds nuw i8, ptr %30, i64 9
  %34 = load i8, ptr %33, align 1, !tbaa !27
  %35 = and i8 %34, %28
  %.not20.i.i.i.i = icmp eq i8 %35, 0
  br i1 %.not20.i.i.i.i, label %38, label %36

36:                                               ; preds = %32
  %37 = load ptr, ptr %30, align 8, !tbaa !47
  store ptr %37, ptr %.023.i.i.i.i, align 8, !tbaa !46
  tail call fastcc void @freeobj(ptr noundef %0, ptr noundef nonnull %30)
  br label %41

38:                                               ; preds = %32
  %39 = and i8 %34, -64
  %40 = or disjoint i8 %39, %29
  store i8 %40, ptr %33, align 1, !tbaa !27
  br label %41

41:                                               ; preds = %38, %36
  %.1.i.i.i.i = phi ptr [ %.023.i.i.i.i, %36 ], [ %30, %38 ]
  %42 = load ptr, ptr %.1.i.i.i.i, align 8, !tbaa !46
  %.not.i.i.i.i = icmp eq ptr %42, null
  br i1 %.not.i.i.i.i, label %minor2inc.exit, label %.lr.ph.i.i.i.i

sweeplist.exit.i.i.i:                             ; preds = %.lr.ph.i.i.i.i
  %43 = icmp eq ptr %.023.i.i.i.i, %22
  br i1 %43, label %23, label %minor2inc.exit

minor2inc.exit:                                   ; preds = %23, %sweeplist.exit.i.i.i, %41
  %44 = phi ptr [ null, %41 ], [ null, %23 ], [ %.023.i.i.i.i, %sweeplist.exit.i.i.i ]
  %45 = getelementptr inbounds nuw i8, ptr %20, i64 120
  store ptr %44, ptr %45, align 8, !tbaa !53
  %46 = getelementptr inbounds nuw i8, ptr %4, i64 105
  %47 = load i8, ptr %46, align 1, !tbaa !33
  %48 = tail call i64 @luaO_applyparam(i8 noundef zeroext %47, i64 noundef 100) #8
  tail call void @luaE_setdebt(ptr noundef %4, i64 noundef %48) #8
  br label %50

49:                                               ; preds = %12
  tail call fastcc void @entergen(ptr noundef nonnull %0, ptr noundef nonnull %4)
  br label %50

50:                                               ; preds = %minor2inc.exit, %49, %9
  ret void
}